target datalayout = "e-m:e-p270:32:32-p271:32:32-p272:64:64-i64:64-i128:128-f80:128-n8:16:32:64-S128"
target triple = "x86_64-pc-linux-gnu"

%"class.std::__shared_count" = type { ptr }
%"class.std::__shared_ptr.2" = type { ptr, %"class.std::__shared_count" }
%"class.cv::hfs::orutils::MemoryBlock.5" = type { ptr, ptr, i64 }
%"class.cv::Mat" = type { i32, i32, i32, i32, ptr, ptr, ptr, ptr, ptr, ptr, %"struct.cv::MatSize", %"struct.cv::MatStep" }
%"struct.cv::MatSize" = type { ptr }
%"struct.cv::MatStep" = type { ptr, [2 x i64] }

; Function Attrs: mustprogress nounwind uwtable
define linkonce_odr hidden noundef ptr @_ZNKSt12__shared_ptrIN2cv3hfs7orutils5ImageIhEELN9__gnu_cxx12_Lock_policyE2EE3getEv(ptr noundef nonnull align 8 dereferenceable(16) %0) #2 comdat align 2 {
  %2 = alloca ptr, align 8
  store ptr %0, ptr %2, align 8, !tbaa !27
  %3 = load ptr, ptr %2, align 8
  %4 = getelementptr inbounds nuw %"class.std::__shared_ptr.2", ptr %3, i32 0, i32 0
  %5 = load ptr, ptr %4, align 8, !tbaa !101
  ret ptr %5
}

; Function Attrs: inlinehint mustprogress nounwind uwtable
define linkonce_odr hidden noundef ptr @_ZN2cv3Mat3ptrIhEEPT_i(ptr noundef nonnull align 8 dereferenceable(96) %0, i32 noundef %1) #1 comdat align 2 {
  %3 = alloca ptr, align 8
  %4 = alloca i32, align 4
  store ptr %0, ptr %3, align 8, !tbaa !29
  store i32 %1, ptr %4, align 4, !tbaa !8
  %5 = load ptr, ptr %3, align 8
  %6 = getelementptr inbounds nuw %"class.cv::Mat", ptr %5, i32 0, i32 4
  %7 = load ptr, ptr %6, align 8, !tbaa !51
  %8 = getelementptr inbounds nuw %"class.cv::Mat", ptr %5, i32 0, i32 11
  %9 = getelementptr inbounds nuw %"struct.cv::MatStep", ptr %8, i32 0, i32 0
  %10 = load ptr, ptr %9, align 8, !tbaa !52
  %11 = getelementptr inbounds i64, ptr %10, i64 0
  %12 = load i64, ptr %11, align 8, !tbaa !53
  %13 = load i32, ptr %4, align 4, !tbaa !8
  %14 = sext i32 %13 to i64
  %15 = mul i64 %12, %14
  %16 = getelementptr inbounds nuw i8, ptr %7, i64 %15
  ret ptr %16
}

; Function Attrs: inlinehint mustprogress nounwind uwtable
define linkonce_odr hidden noundef ptr @_ZN2cv3hfs7orutils11MemoryBlockIhE10getCpuDataEv(ptr noundef nonnull align 8 dereferenceable(24) %0) #1 comdat align 2 {
  %2 = alloca ptr, align 8
  store ptr %0, ptr %2, align 8, !tbaa !46
  %3 = load ptr, ptr %2, align 8
  %4 = getelementptr inbounds nuw %"class.cv::hfs::orutils::MemoryBlock.5", ptr %3, i32 0, i32 1
  %5 = load ptr, ptr %4, align 8, !tbaa !48
  ret ptr %5
}

; Function Attrs: mustprogress nounwind uwtable
define linkonce_odr hidden noundef ptr @_ZNK2cv3PtrINS_3hfs7orutils5ImageIhEEEptEv(ptr noundef nonnull align 8 dereferenceable(16) %0) #2 comdat align 2 {
  %2 = alloca ptr, align 8
  store ptr %0, ptr %2, align 8, !tbaa !12
  %3 = load ptr, ptr %2, align 8
  %4 = call noundef ptr @_ZNKSt12__shared_ptrIN2cv3hfs7orutils5ImageIhEELN9__gnu_cxx12_Lock_policyE2EE3getEv(ptr noundef nonnull align 8 dereferenceable(16) %3) #18
  ret ptr %4
}

; Function Attrs: mustprogress uwtable
define hidden void @_ZN2cv3hfs9Magnitude9loadImageENS_3PtrINS0_7orutils5ImageIhEEEERNS_3MatE(ptr noundef nonnull align 8 dereferenceable(88) %0, ptr noundef %1, ptr noundef nonnull align 8 dereferenceable(96) %2) #0 align 2 {
  %4 = alloca ptr, align 8
  %5 = alloca ptr, align 8
  %6 = alloca ptr, align 8
  %7 = alloca i32, align 4
  %8 = alloca i32, align 4
  %9 = alloca ptr, align 8
  %10 = alloca i32, align 4
  %11 = alloca i32, align 4
  %12 = alloca ptr, align 8
  %13 = alloca i32, align 4
  %14 = alloca i32, align 4
  store ptr %0, ptr %4, align 8, !tbaa !3
  store ptr %1, ptr %5, align 8, !tbaa !12
  store ptr %2, ptr %6, align 8, !tbaa !29
  call void @llvm.lifetime.start.p0(i64 4, ptr %7) #18
  %15 = load ptr, ptr %6, align 8, !tbaa !29
  %16 = getelementptr inbounds nuw %"class.cv::Mat", ptr %15, i32 0, i32 2
  %17 = load i32, ptr %16, align 8, !tbaa !31
  store i32 %17, ptr %7, align 4, !tbaa !8
  call void @llvm.lifetime.start.p0(i64 4, ptr %8) #18
  %18 = load ptr, ptr %6, align 8, !tbaa !29
  %19 = getelementptr inbounds nuw %"class.cv::Mat", ptr %18, i32 0, i32 3
  %20 = load i32, ptr %19, align 4, !tbaa !40
  store i32 %20, ptr %8, align 4, !tbaa !8
  call void @llvm.lifetime.start.p0(i64 8, ptr %9) #18
  %21 = call noundef ptr @_ZNK2cv3PtrINS_3hfs7orutils5ImageIhEEEptEv(ptr noundef nonnull align 8 dereferenceable(16) %1) #18
  %22 = call noundef ptr @_ZN2cv3hfs7orutils11MemoryBlockIhE10getCpuDataEv(ptr noundef nonnull align 8 dereferenceable(24) %21)
  store ptr %22, ptr %9, align 8, !tbaa !41
  call void @llvm.lifetime.start.p0(i64 4, ptr %10) #18
  store i32 0, ptr %10, align 4, !tbaa !8
  br label %23

23:                                               ; preds = %58, %3
  %24 = load i32, ptr %10, align 4, !tbaa !8
  %25 = load i32, ptr %7, align 4, !tbaa !8
  %26 = icmp slt i32 %24, %25
  br i1 %26, label %28, label %27

27:                                               ; preds = %23
  store i32 2, ptr %11, align 4
  call void @llvm.lifetime.end.p0(i64 4, ptr %10) #18
  br label %61

28:                                               ; preds = %23
  call void @llvm.lifetime.start.p0(i64 8, ptr %12) #18
  %29 = load ptr, ptr %6, align 8, !tbaa !29
  %30 = load i32, ptr %10, align 4, !tbaa !8
  %31 = call noundef ptr @_ZN2cv3Mat3ptrIhEEPT_i(ptr noundef nonnull align 8 dereferenceable(96) %29, i32 noundef %30)
  store ptr %31, ptr %12, align 8, !tbaa !41
  call void @llvm.lifetime.start.p0(i64 4, ptr %13) #18
  store i32 0, ptr %13, align 4, !tbaa !8
  br label %32

32:                                               ; preds = %54, %28
  %33 = load i32, ptr %13, align 4, !tbaa !8
  %34 = load i32, ptr %8, align 4, !tbaa !8
  %35 = icmp slt i32 %33, %34
  br i1 %35, label %37, label %36

36:                                               ; preds = %32
  store i32 5, ptr %11, align 4
  call void @llvm.lifetime.end.p0(i64 4, ptr %13) #18
  br label %57

37:                                               ; preds = %32
  call void @llvm.lifetime.start.p0(i64 4, ptr %14) #18
  %38 = load i32, ptr %13, align 4, !tbaa !8
  %39 = load i32, ptr %10, align 4, !tbaa !8
  %40 = load ptr, ptr %6, align 8, !tbaa !29
  %41 = getelementptr inbounds nuw %"class.cv::Mat", ptr %40, i32 0, i32 3
  %42 = load i32, ptr %41, align 4, !tbaa !40
  %43 = mul nsw i32 %39, %42
  %44 = add nsw i32 %38, %43
  store i32 %44, ptr %14, align 4, !tbaa !8
  %45 = load ptr, ptr %9, align 8, !tbaa !41
  %46 = load i32, ptr %14, align 4, !tbaa !8
  %47 = sext i32 %46 to i64
  %48 = getelementptr inbounds i8, ptr %45, i64 %47
  %49 = load i8, ptr %48, align 1, !tbaa !42
  %50 = load ptr, ptr %12, align 8, !tbaa !41
  %51 = load i32, ptr %13, align 4, !tbaa !8
  %52 = sext i32 %51 to i64
  %53 = getelementptr inbounds i8, ptr %50, i64 %52
  store i8 %49, ptr %53, align 1, !tbaa !42
  call void @llvm.lifetime.end.p0(i64 4, ptr %14) #18
  br label %54

54:                                               ; preds = %37
  %55 = load i32, ptr %13, align 4, !tbaa !8
  %56 = add nsw i32 %55, 1
  store i32 %56, ptr %13, align 4, !tbaa !8
  br label %32, !llvm.loop !54

57:                                               ; preds = %36
  call void @llvm.lifetime.end.p0(i64 8, ptr %12) #18
  br label %58

58:                                               ; preds = %57
  %59 = load i32, ptr %10, align 4, !tbaa !8
  %60 = add nsw i32 %59, 1
  store i32 %60, ptr %10, align 4, !tbaa !8
  br label %23, !llvm.loop !55

61:                                               ; preds = %27
  call void @llvm.lifetime.end.p0(i64 8, ptr %9) #18
  call void @llvm.lifetime.end.p0(i64 4, ptr %8) #18
  call void @llvm.lifetime.end.p0(i64 4, ptr %7) #18
  ret void
}