; Function Attrs: mustprogress nofree norecurse nosync nounwind memory(readwrite, inaccessiblemem: none) uwtable
define hidden void @_ZN2cv3hfs9Magnitude9loadImageENS_3PtrINS0_7orutils5ImageIhEEEERNS_3MatE(ptr noundef nonnull readnone align 8 captures(none) dereferenceable(88) %0, ptr noundef readonly captures(none) %1, ptr noundef nonnull readonly align 8 captures(none) dereferenceable(96) %2) local_unnamed_addr #5 align 2 {
  %4 = getelementptr inbounds nuw i8, ptr %2, i64 8
  %5 = load i32, ptr %4, align 8, !tbaa !37
  %6 = getelementptr inbounds nuw i8, ptr %2, i64 12
  %7 = load i32, ptr %6, align 4, !tbaa !44
  %8 = load ptr, ptr %1, align 8, !tbaa !35
  %9 = getelementptr inbounds nuw i8, ptr %8, i64 8
  %10 = load ptr, ptr %9, align 8, !tbaa !31
  %11 = icmp sgt i32 %5, 0
  br i1 %11, label %.lr.ph20, label %._crit_edge21

.lr.ph20:                                         ; preds = %3
  %12 = getelementptr inbounds nuw i8, ptr %2, i64 16
  %13 = getelementptr inbounds nuw i8, ptr %2, i64 72
  %14 = icmp sgt i32 %7, 0
  br i1 %14, label %.lr.ph.us.preheader, label %._crit_edge21

.lr.ph.us.preheader:                              ; preds = %.lr.ph20
  %wide.trip.count27 = zext nneg i32 %5 to i64
  %wide.trip.count = zext nneg i32 %7 to i64
  br label %.lr.ph.us

.lr.ph.us:                                        ; preds = %.lr.ph.us.preheader, %._crit_edge.us
  %indvars.iv24 = phi i64 [ 0, %.lr.ph.us.preheader ], [ %indvars.iv.next25, %._crit_edge.us ]
  %15 = load ptr, ptr %12, align 8, !tbaa !45
  %16 = load ptr, ptr %13, align 8, !tbaa !46
  %17 = load i64, ptr %16, align 8, !tbaa !47
  %18 = mul i64 %17, %indvars.iv24
  %19 = getelementptr inbounds nuw i8, ptr %15, i64 %18
  %20 = trunc nuw nsw i64 %indvars.iv24 to i32
  br label %21

21:                                               ; preds = %.lr.ph.us, %21
  %indvars.iv = phi i64 [ 0, %.lr.ph.us ], [ %indvars.iv.next, %21 ]
  %22 = load i32, ptr %6, align 4, !tbaa !44
  %23 = mul nsw i32 %22, %20
  %24 = trunc nuw nsw i64 %indvars.iv to i32
  %25 = add nsw i32 %23, %24
  %26 = sext i32 %25 to i64
  %27 = getelementptr inbounds i8, ptr %10, i64 %26
  %28 = load i8, ptr %27, align 1, !tbaa !24
  %29 = getelementptr inbounds nuw i8, ptr %19, i64 %indvars.iv
  store i8 %28, ptr %29, align 1, !tbaa !24
  %indvars.iv.next = add nuw nsw i64 %indvars.iv, 1
  %exitcond.not = icmp eq i64 %indvars.iv.next, %wide.trip.count
  br i1 %exitcond.not, label %._crit_edge.us, label %21, !llvm.loop !51

._crit_edge.us:                                   ; preds = %21
  %indvars.iv.next25 = add nuw nsw i64 %indvars.iv24, 1
  %exitcond28.not = icmp eq i64 %indvars.iv.next25, %wide.trip.count27
  br i1 %exitcond28.not, label %._crit_edge21, label %.lr.ph.us, !llvm.loop !52

._crit_edge21:                                    ; preds = %._crit_edge.us, %.lr.ph20, %3
  ret void
}